target datalayout = "e-m:e-p270:32:32-p271:32:32-p272:64:64-i64:64-i128:128-f80:128-n8:16:32:64-S128"
target triple = "x86_64-pc-linux-gnu"

; Function Attrs: nounwind uwtable
define internal ptr @ps_get_standard_strings(i32 noundef %0) #0 {
  %2 = alloca ptr, align 8
  %3 = alloca i32, align 4
  store i32 %0, ptr %3, align 4, !tbaa !11
  %4 = load i32, ptr %3, align 4, !tbaa !11
  %5 = icmp uge i32 %4, 391
  br i1 %5, label %6, label %7

6:                                                ; preds = %1
  store ptr null, ptr %2, align 8
  br label %15

7:                                                ; preds = %1
  %8 = load i32, ptr %3, align 4, !tbaa !11
  %9 = zext i32 %8 to i64
  %10 = getelementptr inbounds nuw [391 x i16], ptr @ft_sid_names, i64 0, i64 %9
  %11 = load i16, ptr %10, align 2, !tbaa !41
  %12 = sext i16 %11 to i32
  %13 = sext i32 %12 to i64
  %14 = getelementptr inbounds i8, ptr @ft_standard_glyph_names, i64 %13
  store ptr %14, ptr %2, align 8
  br label %15

15:                                               ; preds = %7, %6
  %16 = load ptr, ptr %2, align 8
  ret ptr %16
}