; Function Attrs: mustprogress nofree norecurse nosync nounwind willreturn memory(none) uwtable
define internal ptr @ps_get_standard_strings(i32 noundef %0) #4 {
  %2 = icmp ugt i32 %0, 390
  br i1 %2, label %9, label %3

3:                                                ; preds = %1
  %4 = zext nneg i32 %0 to i64
  %5 = getelementptr inbounds nuw [391 x i16], ptr @ft_sid_names, i64 0, i64 %4
  %6 = load i16, ptr %5, align 2, !tbaa !31
  %7 = sext i16 %6 to i64
  %8 = getelementptr inbounds i8, ptr @ft_standard_glyph_names, i64 %7
  br label %9

9:                                                ; preds = %1, %3
  %.0 = phi ptr [ %8, %3 ], [ null, %1 ]
  ret ptr %.0
}